target datalayout = "e-m:e-p270:32:32-p271:32:32-p272:64:64-i64:64-i128:128-f80:128-n8:16:32:64-S128"
target triple = "x86_64-pc-linux-gnu"

%class.toku_instr_key = type { i8 }
%"class.toku::locktree_manager" = type { i64, i64, %"struct.toku::lt_counters", ptr, ptr, ptr, ptr, %"class.toku::omt", %"class.std::shared_ptr", %struct.toku_mutex_t, %struct.toku_mutex_t, i64, i64, i64, i64, i64, i64, i64, %"class.toku::locktree_manager::locktree_escalator" }
%"struct.toku::lt_counters" = type { i64, i64, i64, i64, i64 }
%"class.toku::omt" = type { i8, i32, %union.anon }
%union.anon = type { %"struct.toku::omt<toku::locktree *>::omt_array" }
%"struct.toku::omt<toku::locktree *>::omt_array" = type { i32, i32, ptr }
%"class.std::shared_ptr" = type { %"class.std::__shared_ptr" }
%"class.std::__shared_ptr" = type { ptr, %"class.std::__shared_count" }
%"class.std::__shared_count" = type { ptr }
%struct.toku_mutex_t = type { %union.pthread_mutex_t, ptr }
%union.pthread_mutex_t = type { %struct.__pthread_mutex_s }
%struct.__pthread_mutex_s = type { i32, i32, i32, i32, i32, i16, i16, %struct.__pthread_internal_list }
%struct.__pthread_internal_list = type { ptr, ptr }
%"class.toku::locktree_manager::locktree_escalator" = type <{ %struct.toku_mutex_t, %struct.toku_cond_t, i8, [7 x i8] }>
%struct.toku_cond_t = type { %union.pthread_cond_t, ptr }
%union.pthread_cond_t = type { %struct.__pthread_cond_s }
%struct.__pthread_cond_s = type { %union.__atomic_wide_counter, %union.__atomic_wide_counter, [2 x i32], [2 x i32], i32, i32, [2 x i32] }
%union.__atomic_wide_counter = type { i64 }

@manager_escalation_mutex_key = external global %class.toku_instr_key, align 1
@manager_escalator_mutex_key = external global %class.toku_instr_key, align 1
@manager_m_escalator_done_key = external global %class.toku_instr_key, align 1

; Function Attrs: inlinehint mustprogress nounwind uwtable
define linkonce_odr noundef ptr @_Z20toku_instr_cond_initRK14toku_instr_keyR11toku_cond_t(ptr noundef nonnull align 1 dereferenceable(1) %0, ptr noundef nonnull align 8 dereferenceable(56) %1) #7 comdat {
  %3 = alloca ptr, align 8
  %4 = alloca ptr, align 8
  store ptr %0, ptr %3, align 8, !tbaa !36
  store ptr %1, ptr %4, align 8, !tbaa !111
  ret ptr null
}

; Function Attrs: inlinehint mustprogress uwtable
define linkonce_odr void @_Z14toku_cond_initRK14toku_instr_keyP11toku_cond_tPK18pthread_condattr_t(ptr noundef nonnull align 1 dereferenceable(1) %0, ptr noundef %1, ptr noundef %2) #3 comdat {
  %4 = alloca ptr, align 8
  %5 = alloca ptr, align 8
  %6 = alloca ptr, align 8
  %7 = alloca i32, align 4
  store ptr %0, ptr %4, align 8, !tbaa !36
  store ptr %1, ptr %5, align 8, !tbaa !111
  store ptr %2, ptr %6, align 8, !tbaa !9
  %8 = load ptr, ptr %4, align 8, !tbaa !36
  %9 = load ptr, ptr %5, align 8, !tbaa !111
  %10 = call noundef ptr @_Z20toku_instr_cond_initRK14toku_instr_keyR11toku_cond_t(ptr noundef nonnull align 1 dereferenceable(1) %8, ptr noundef nonnull align 8 dereferenceable(56) %9)
  call void @llvm.lifetime.start.p0(i64 4, ptr %7) #17
  %11 = load ptr, ptr %5, align 8, !tbaa !111
  %12 = getelementptr inbounds nuw %struct.toku_cond_t, ptr %11, i32 0, i32 0
  %13 = load ptr, ptr %6, align 8, !tbaa !9
  %14 = call i32 @pthread_cond_init(ptr noundef %12, ptr noundef %13) #17
  store i32 %14, ptr %7, align 4, !tbaa !40
  call void @llvm.lifetime.end.p0(i64 4, ptr %7) #17
  ret void
}

; Function Attrs: inlinehint mustprogress nounwind uwtable
define linkonce_odr noundef ptr @_Z21toku_instr_mutex_initRK14toku_instr_keyR12toku_mutex_t(ptr noundef nonnull align 1 dereferenceable(1) %0, ptr noundef nonnull align 8 dereferenceable(48) %1) #7 comdat {
  %3 = alloca ptr, align 8
  %4 = alloca ptr, align 8
  store ptr %0, ptr %3, align 8, !tbaa !36
  store ptr %1, ptr %4, align 8, !tbaa !38
  ret ptr null
}

; Function Attrs: mustprogress uwtable
define void @_ZN4toku16locktree_manager18locktree_escalator6createEv(ptr noundef nonnull align 8 dereferenceable(105) %0) #0 align 2 {
  %2 = alloca ptr, align 8
  store ptr %0, ptr %2, align 8, !tbaa !83
  %3 = load ptr, ptr %2, align 8
  br label %4

4:                                                ; preds = %1
  %5 = getelementptr inbounds nuw %"class.toku::locktree_manager::locktree_escalator", ptr %3, i32 0, i32 0
  call void @llvm.memset.p0.i64(ptr align 8 %5, i8 0, i64 48, i1 false)
  br label %6

6:                                                ; preds = %4
  %7 = getelementptr inbounds nuw %"class.toku::locktree_manager::locktree_escalator", ptr %3, i32 0, i32 0
  call void @_Z15toku_mutex_initRK14toku_instr_keyP12toku_mutex_tPK19pthread_mutexattr_t(ptr noundef nonnull align 1 dereferenceable(1) @manager_escalator_mutex_key, ptr noundef %7, ptr noundef null)
  %8 = getelementptr inbounds nuw %"class.toku::locktree_manager::locktree_escalator", ptr %3, i32 0, i32 1
  call void @_Z14toku_cond_initRK14toku_instr_keyP11toku_cond_tPK18pthread_condattr_t(ptr noundef nonnull align 1 dereferenceable(1) @manager_m_escalator_done_key, ptr noundef %8, ptr noundef null)
  %9 = getelementptr inbounds nuw %"class.toku::locktree_manager::locktree_escalator", ptr %3, i32 0, i32 2
  store i8 0, ptr %9, align 8, !tbaa !85
  ret void
}

; Function Attrs: inlinehint mustprogress uwtable
define linkonce_odr void @_Z15toku_mutex_initRK14toku_instr_keyP12toku_mutex_tPK19pthread_mutexattr_t(ptr noundef nonnull align 1 dereferenceable(1) %0, ptr noundef %1, ptr noundef %2) #3 comdat {
  %4 = alloca ptr, align 8
  %5 = alloca ptr, align 8
  %6 = alloca ptr, align 8
  %7 = alloca i32, align 4
  store ptr %0, ptr %4, align 8, !tbaa !36
  store ptr %1, ptr %5, align 8, !tbaa !38
  store ptr %2, ptr %6, align 8, !tbaa !9
  %8 = load ptr, ptr %4, align 8, !tbaa !36
  %9 = load ptr, ptr %5, align 8, !tbaa !38
  %10 = call noundef ptr @_Z21toku_instr_mutex_initRK14toku_instr_keyR12toku_mutex_t(ptr noundef nonnull align 1 dereferenceable(1) %8, ptr noundef nonnull align 8 dereferenceable(48) %9)
  call void @llvm.lifetime.start.p0(i64 4, ptr %7) #17
  %11 = load ptr, ptr %5, align 8, !tbaa !38
  %12 = getelementptr inbounds nuw %struct.toku_mutex_t, ptr %11, i32 0, i32 0
  %13 = load ptr, ptr %6, align 8, !tbaa !9
  %14 = call i32 @pthread_mutex_init(ptr noundef %12, ptr noundef %13) #17
  store i32 %14, ptr %7, align 4, !tbaa !40
  call void @llvm.lifetime.end.p0(i64 4, ptr %7) #17
  ret void
}

; Function Attrs: mustprogress uwtable
define void @_ZN4toku16locktree_manager14escalator_initEv(ptr noundef nonnull align 8 dereferenceable(392) %0) #0 align 2 {
  %2 = alloca ptr, align 8
  store ptr %0, ptr %2, align 8, !tbaa !4
  %3 = load ptr, ptr %2, align 8
  br label %4

4:                                                ; preds = %1
  %5 = getelementptr inbounds nuw %"class.toku::locktree_manager", ptr %3, i32 0, i32 10
  call void @llvm.memset.p0.i64(ptr align 8 %5, i8 0, i64 48, i1 false)
  br label %6

6:                                                ; preds = %4
  %7 = getelementptr inbounds nuw %"class.toku::locktree_manager", ptr %3, i32 0, i32 10
  call void @_Z15toku_mutex_initRK14toku_instr_keyP12toku_mutex_tPK19pthread_mutexattr_t(ptr noundef nonnull align 1 dereferenceable(1) @manager_escalation_mutex_key, ptr noundef %7, ptr noundef null)
  %8 = getelementptr inbounds nuw %"class.toku::locktree_manager", ptr %3, i32 0, i32 11
  store i64 0, ptr %8, align 8, !tbaa !41
  %9 = getelementptr inbounds nuw %"class.toku::locktree_manager", ptr %3, i32 0, i32 12
  store i64 0, ptr %9, align 8, !tbaa !42
  %10 = getelementptr inbounds nuw %"class.toku::locktree_manager", ptr %3, i32 0, i32 14
  store i64 0, ptr %10, align 8, !tbaa !43
  %11 = getelementptr inbounds nuw %"class.toku::locktree_manager", ptr %3, i32 0, i32 15
  store i64 0, ptr %11, align 8, !tbaa !44
  %12 = getelementptr inbounds nuw %"class.toku::locktree_manager", ptr %3, i32 0, i32 16
  store i64 0, ptr %12, align 8, !tbaa !45
  %13 = getelementptr inbounds nuw %"class.toku::locktree_manager", ptr %3, i32 0, i32 17
  store i64 0, ptr %13, align 8, !tbaa !46
  %14 = getelementptr inbounds nuw %"class.toku::locktree_manager", ptr %3, i32 0, i32 13
  store i64 0, ptr %14, align 8, !tbaa !47
  %15 = getelementptr inbounds nuw %"class.toku::locktree_manager", ptr %3, i32 0, i32 18
  call void @_ZN4toku16locktree_manager18locktree_escalator6createEv(ptr noundef nonnull align 8 dereferenceable(105) %15)
  ret void
}