; Function Attrs: mustprogress nounwind uwtable
define void @_ZN4toku16locktree_manager14escalator_initEv(ptr noundef nonnull align 8 dereferenceable(392) initializes((176, 224)) %0) local_unnamed_addr #2 align 2 {
  %2 = getelementptr inbounds nuw i8, ptr %0, i64 176
  tail call void @llvm.memset.p0.i64(ptr noundef nonnull align 8 dereferenceable(48) %2, i8 0, i64 48, i1 false)
  %3 = tail call i32 @pthread_mutex_init(ptr noundef nonnull %2, ptr noundef null) #14
  %4 = getelementptr inbounds nuw i8, ptr %0, i64 224
  %5 = getelementptr inbounds nuw i8, ptr %0, i64 280
  tail call void @llvm.memset.p0.i64(ptr noundef nonnull align 8 dereferenceable(104) %4, i8 0, i64 104, i1 false)
  %6 = tail call i32 @pthread_mutex_init(ptr noundef nonnull align 8 dereferenceable(105) %5, ptr noundef null) #14
  %7 = getelementptr inbounds nuw i8, ptr %0, i64 328
  %8 = tail call i32 @pthread_cond_init(ptr noundef nonnull %7, ptr noundef null) #14
  %9 = getelementptr inbounds nuw i8, ptr %0, i64 384
  store i8 0, ptr %9, align 8, !tbaa !41
  ret void
}